target datalayout = "e-m:e-p270:32:32-p271:32:32-p272:64:64-i64:64-i128:128-f80:128-n8:16:32:64-S128"
target triple = "x86_64-pc-linux-gnu"

%struct.PyStatus = type { i32, ptr, ptr, i32 }

@.str = private unnamed_addr constant [34 x i8] c"path configuration is unsupported\00", align 1

; Function Attrs: nounwind uwtable
define hidden void @_PyConfig_InitPathConfig(ptr dead_on_unwind noalias writable sret(%struct.PyStatus) align 8 %0, ptr noundef %1, i32 noundef %2) #0 {
  %4 = alloca ptr, align 8
  %5 = alloca i32, align 4
  store ptr %1, ptr %4, align 8, !tbaa !4
  store i32 %2, ptr %5, align 4, !tbaa !9
  call void @PyStatus_Error(ptr dead_on_unwind writable sret(%struct.PyStatus) align 8 %0, ptr noundef @.str)
  ret void
}

declare void @PyStatus_Error(ptr dead_on_unwind writable sret(%struct.PyStatus) align 8, ptr noundef) #1


!llvm.module.flags = !{!0, !1, !2, !3}

!0 = !{i32 1, !"wchar_size", i32 4}
!1 = !{i32 8, !"PIC Level", i32 2}
!2 = !{i32 7, !"PIE Level", i32 2}
!3 = !{i32 7, !"uwtable", i32 2}
!4 = !{!5, !5, i64 0}
!5 = !{!"p1 _ZTS8PyConfig", !6, i64 0}
!6 = !{!"any pointer", !7, i64 0}
!7 = !{!"omnipotent char", !8, i64 0}
!8 = !{!"Simple C/C++ TBAA"}
!9 = !{!10, !10, i64 0}
!10 = !{!"int", !7, i64 0}
