; ModuleID = 'bench/cpython/original/getpath_noop.ll'
source_filename = "bench/cpython/original/getpath_noop.ll"
target datalayout = "e-m:e-p270:32:32-p271:32:32-p272:64:64-i64:64-i128:128-f80:128-n8:16:32:64-S128"
target triple = "x86_64-pc-linux-gnu"

%struct.PyStatus = type { i32, ptr, ptr, i32 }

@.str = private unnamed_addr constant [34 x i8] c"path configuration is unsupported\00", align 1

; Function Attrs: nounwind uwtable
define hidden void @_PyConfig_InitPathConfig(ptr dead_on_unwind noalias writable sret(%struct.PyStatus) align 8 %0, ptr noundef readnone captures(none) %1, i32 noundef %2) local_unnamed_addr #0 {
  tail call void @PyStatus_Error(ptr dead_on_unwind writable sret(%struct.PyStatus) align 8 %0, ptr noundef nonnull @.str) #2
  ret void
}

declare void @PyStatus_Error(ptr dead_on_unwind writable sret(%struct.PyStatus) align 8, ptr noundef) local_unnamed_addr #1


!llvm.module.flags = !{!0, !1, !2, !3}

!0 = !{i32 1, !"wchar_size", i32 4}
!1 = !{i32 8, !"PIC Level", i32 2}
!2 = !{i32 7, !"PIE Level", i32 2}
!3 = !{i32 7, !"uwtable", i32 2}
